SF:C:\Users\Kaloyan\Desktop\Learning\zero2prod\src\configuration.rs
FN:16,_RNvNtCslIQ9Jy4gRpB_9zero2prod13configuration17get_configuration
FN:24,_RNvMNtCslIQ9Jy4gRpB_9zero2prod13configurationNtB2_16DatabaseSettings17connection_string
FN:31,_RNvMNtCslIQ9Jy4gRpB_9zero2prod13configurationNtB2_16DatabaseSettings28connection_string_without_db
FN:1,_RNvXNvXNvNtCslIQ9Jy4gRpB_9zero2prod13configuration1__NtB7_8SettingsNtNtCsdHKQqFM4Pyt_5serde2de11Deserialize11deserializeNtB2_14___FieldVisitorNtB15_7Visitor9expecting
FN:1,_RNvXs0_NvXNvNtCslIQ9Jy4gRpB_9zero2prod13configuration1__NtBa_8SettingsNtNtCsdHKQqFM4Pyt_5serde2de11Deserialize11deserializeNtB5_9___VisitorNtB18_7Visitor9expecting
FN:7,_RNvXNvXNvNtCslIQ9Jy4gRpB_9zero2prod13configurations_1__NtB7_16DatabaseSettingsNtNtCsdHKQqFM4Pyt_5serde2de11Deserialize11deserializeNtB2_14___FieldVisitorNtB1g_7Visitor9expecting
FN:7,_RNvXs0_NvXNvNtCslIQ9Jy4gRpB_9zero2prod13configurations_1__NtBa_16DatabaseSettingsNtNtCsdHKQqFM4Pyt_5serde2de11Deserialize11deserializeNtB5_9___VisitorNtB1j_7Visitor9expecting
FN:1,_RINvXNvXNvNtCslIQ9Jy4gRpB_9zero2prod13configuration1__NtB8_8SettingsNtNtCsdHKQqFM4Pyt_5serde2de11Deserialize11deserializeNtB3_14___FieldVisitorNtB16_7Visitor9visit_u64NtNtCs9mPPi8wqAva_6config5error11ConfigErrorEBa_
FN:1,_RINvXNvXNvNtCslIQ9Jy4gRpB_9zero2prod13configuration1__NtB8_8SettingsNtNtCsdHKQqFM4Pyt_5serde2de11Deserialize11deserializeNtB3_14___FieldVisitorNtB16_7Visitor9visit_strNtNtCs9mPPi8wqAva_6config5error11ConfigErrorEBa_
FN:1,_RINvXs_NvXNvNtCslIQ9Jy4gRpB_9zero2prod13configuration1__NtBa_8SettingsNtNtCsdHKQqFM4Pyt_5serde2de11Deserialize11deserializeNtB5_7___FieldB16_11deserializeNtNtCs9mPPi8wqAva_6config5value5ValueEBc_
FN:1,_RINvXs0_NvXNvNtCslIQ9Jy4gRpB_9zero2prod13configuration1__NtBb_8SettingsNtNtCsdHKQqFM4Pyt_5serde2de11Deserialize11deserializeNtB6_9___VisitorNtB19_7Visitor9visit_seqNtNtCs9mPPi8wqAva_6config2de9SeqAccessEBd_
FN:1,_RINvXs0_NvXNvNtCslIQ9Jy4gRpB_9zero2prod13configuration1__NtBb_8SettingsNtNtCsdHKQqFM4Pyt_5serde2de11Deserialize11deserializeNtB6_9___VisitorNtB19_7Visitor9visit_mapNtNtCs9mPPi8wqAva_6config2de9MapAccessEBd_
FN:7,_RINvXNvXNvNtCslIQ9Jy4gRpB_9zero2prod13configurations_1__NtB8_16DatabaseSettingsNtNtCsdHKQqFM4Pyt_5serde2de11Deserialize11deserializeNtB3_14___FieldVisitorNtB1h_7Visitor9visit_u64NtNtCs9mPPi8wqAva_6config5error11ConfigErrorEBa_
FN:7,_RINvXNvXNvNtCslIQ9Jy4gRpB_9zero2prod13configurations_1__NtB8_16DatabaseSettingsNtNtCsdHKQqFM4Pyt_5serde2de11Deserialize11deserializeNtB3_14___FieldVisitorNtB1h_7Visitor9visit_strNtNtCs9mPPi8wqAva_6config5error11ConfigErrorEBa_
FN:7,_RINvXs_NvXNvNtCslIQ9Jy4gRpB_9zero2prod13configurations_1__NtBa_16DatabaseSettingsNtNtCsdHKQqFM4Pyt_5serde2de11Deserialize11deserializeNtB5_7___FieldB1h_11deserializeNtNtCs9mPPi8wqAva_6config5value5ValueEBc_
FN:7,_RINvXs0_NvXNvNtCslIQ9Jy4gRpB_9zero2prod13configurations_1__NtBb_16DatabaseSettingsNtNtCsdHKQqFM4Pyt_5serde2de11Deserialize11deserializeNtB6_9___VisitorNtB1k_7Visitor9visit_seqNtNtCs9mPPi8wqAva_6config2de9SeqAccessEBd_
FN:7,_RINvXs0_NvXNvNtCslIQ9Jy4gRpB_9zero2prod13configurations_1__NtBb_16DatabaseSettingsNtNtCsdHKQqFM4Pyt_5serde2de11Deserialize11deserializeNtB6_9___VisitorNtB1k_7Visitor9visit_mapNtNtCs9mPPi8wqAva_6config2de9MapAccessEBd_
FN:1,_RINvXNvXNvNtCslIQ9Jy4gRpB_9zero2prod13configuration1__NtB8_8SettingsNtNtCsdHKQqFM4Pyt_5serde2de11Deserialize11deserializeNtB3_14___FieldVisitorNtB16_7Visitor11visit_bytespEBa_
FN:7,_RINvXNvXNvNtCslIQ9Jy4gRpB_9zero2prod13configurations_1__NtB8_16DatabaseSettingsNtNtCsdHKQqFM4Pyt_5serde2de11Deserialize11deserializeNtB3_14___FieldVisitorNtB1h_7Visitor11visit_bytespEBa_
FN:1,_RNvXNvXNvNtCs9lSmsy1E5hy_9zero2prod13configuration1__NtB7_8SettingsNtNtCsdHKQqFM4Pyt_5serde2de11Deserialize11deserializeNtB2_14___FieldVisitorNtB15_7Visitor9expecting
FN:1,_RINvXNvXNvNtCs9lSmsy1E5hy_9zero2prod13configuration1__NtB8_8SettingsNtNtCsdHKQqFM4Pyt_5serde2de11Deserialize11deserializeNtB3_14___FieldVisitorNtB16_7Visitor9visit_u64pEBa_
FN:1,_RINvXNvXNvNtCs9lSmsy1E5hy_9zero2prod13configuration1__NtB8_8SettingsNtNtCsdHKQqFM4Pyt_5serde2de11Deserialize11deserializeNtB3_14___FieldVisitorNtB16_7Visitor9visit_strpEBa_
FN:1,_RINvXNvXNvNtCs9lSmsy1E5hy_9zero2prod13configuration1__NtB8_8SettingsNtNtCsdHKQqFM4Pyt_5serde2de11Deserialize11deserializeNtB3_14___FieldVisitorNtB16_7Visitor11visit_bytespEBa_
FN:1,_RINvXs_NvXNvNtCs9lSmsy1E5hy_9zero2prod13configuration1__NtBa_8SettingsNtNtCsdHKQqFM4Pyt_5serde2de11Deserialize11deserializeNtB5_7___FieldB16_11deserializepEBc_
FN:1,_RNvXs0_NvXNvNtCs9lSmsy1E5hy_9zero2prod13configuration1__NtBa_8SettingsNtNtCsdHKQqFM4Pyt_5serde2de11Deserialize11deserializeNtB5_9___VisitorNtB18_7Visitor9expecting
FN:1,_RINvXs0_NvXNvNtCs9lSmsy1E5hy_9zero2prod13configuration1__NtBb_8SettingsNtNtCsdHKQqFM4Pyt_5serde2de11Deserialize11deserializeNtB6_9___VisitorNtB19_7Visitor9visit_seqpEBd_
FN:1,_RINvXs0_NvXNvNtCs9lSmsy1E5hy_9zero2prod13configuration1__NtBb_8SettingsNtNtCsdHKQqFM4Pyt_5serde2de11Deserialize11deserializeNtB6_9___VisitorNtB19_7Visitor9visit_mappEBd_
FN:7,_RNvXNvXNvNtCs9lSmsy1E5hy_9zero2prod13configurations_1__NtB7_16DatabaseSettingsNtNtCsdHKQqFM4Pyt_5serde2de11Deserialize11deserializeNtB2_14___FieldVisitorNtB1g_7Visitor9expecting
FN:7,_RINvXNvXNvNtCs9lSmsy1E5hy_9zero2prod13configurations_1__NtB8_16DatabaseSettingsNtNtCsdHKQqFM4Pyt_5serde2de11Deserialize11deserializeNtB3_14___FieldVisitorNtB1h_7Visitor9visit_u64pEBa_
FN:7,_RINvXNvXNvNtCs9lSmsy1E5hy_9zero2prod13configurations_1__NtB8_16DatabaseSettingsNtNtCsdHKQqFM4Pyt_5serde2de11Deserialize11deserializeNtB3_14___FieldVisitorNtB1h_7Visitor9visit_strpEBa_
FN:7,_RINvXNvXNvNtCs9lSmsy1E5hy_9zero2prod13configurations_1__NtB8_16DatabaseSettingsNtNtCsdHKQqFM4Pyt_5serde2de11Deserialize11deserializeNtB3_14___FieldVisitorNtB1h_7Visitor11visit_bytespEBa_
FN:7,_RINvXs_NvXNvNtCs9lSmsy1E5hy_9zero2prod13configurations_1__NtBa_16DatabaseSettingsNtNtCsdHKQqFM4Pyt_5serde2de11Deserialize11deserializeNtB5_7___FieldB1h_11deserializepEBc_
FN:7,_RNvXs0_NvXNvNtCs9lSmsy1E5hy_9zero2prod13configurations_1__NtBa_16DatabaseSettingsNtNtCsdHKQqFM4Pyt_5serde2de11Deserialize11deserializeNtB5_9___VisitorNtB1j_7Visitor9expecting
FN:7,_RINvXs0_NvXNvNtCs9lSmsy1E5hy_9zero2prod13configurations_1__NtBb_16DatabaseSettingsNtNtCsdHKQqFM4Pyt_5serde2de11Deserialize11deserializeNtB6_9___VisitorNtB1k_7Visitor9visit_seqpEBd_
FN:7,_RINvXs0_NvXNvNtCs9lSmsy1E5hy_9zero2prod13configurations_1__NtBb_16DatabaseSettingsNtNtCsdHKQqFM4Pyt_5serde2de11Deserialize11deserializeNtB6_9___VisitorNtB1k_7Visitor9visit_mappEBd_
FN:16,_RNvNtCs9lSmsy1E5hy_9zero2prod13configuration17get_configuration
FN:24,_RNvMNtCs9lSmsy1E5hy_9zero2prod13configurationNtB2_16DatabaseSettings17connection_string
FN:31,_RNvMNtCs9lSmsy1E5hy_9zero2prod13configurationNtB2_16DatabaseSettings28connection_string_without_db
FNDA:3,_RNvNtCslIQ9Jy4gRpB_9zero2prod13configuration17get_configuration
FNDA:0,_RNvMNtCslIQ9Jy4gRpB_9zero2prod13configurationNtB2_16DatabaseSettings17connection_string
FNDA:6,_RNvMNtCslIQ9Jy4gRpB_9zero2prod13configurationNtB2_16DatabaseSettings28connection_string_without_db
FNDA:0,_RNvXNvXNvNtCslIQ9Jy4gRpB_9zero2prod13configuration1__NtB7_8SettingsNtNtCsdHKQqFM4Pyt_5serde2de11Deserialize11deserializeNtB2_14___FieldVisitorNtB15_7Visitor9expecting
FNDA:0,_RNvXs0_NvXNvNtCslIQ9Jy4gRpB_9zero2prod13configuration1__NtBa_8SettingsNtNtCsdHKQqFM4Pyt_5serde2de11Deserialize11deserializeNtB5_9___VisitorNtB18_7Visitor9expecting
FNDA:0,_RNvXNvXNvNtCslIQ9Jy4gRpB_9zero2prod13configurations_1__NtB7_16DatabaseSettingsNtNtCsdHKQqFM4Pyt_5serde2de11Deserialize11deserializeNtB2_14___FieldVisitorNtB1g_7Visitor9expecting
FNDA:0,_RNvXs0_NvXNvNtCslIQ9Jy4gRpB_9zero2prod13configurations_1__NtBa_16DatabaseSettingsNtNtCsdHKQqFM4Pyt_5serde2de11Deserialize11deserializeNtB5_9___VisitorNtB1j_7Visitor9expecting
FNDA:0,_RINvXNvXNvNtCslIQ9Jy4gRpB_9zero2prod13configuration1__NtB8_8SettingsNtNtCsdHKQqFM4Pyt_5serde2de11Deserialize11deserializeNtB3_14___FieldVisitorNtB16_7Visitor9visit_u64NtNtCs9mPPi8wqAva_6config5error11ConfigErrorEBa_
FNDA:6,_RINvXNvXNvNtCslIQ9Jy4gRpB_9zero2prod13configuration1__NtB8_8SettingsNtNtCsdHKQqFM4Pyt_5serde2de11Deserialize11deserializeNtB3_14___FieldVisitorNtB16_7Visitor9visit_strNtNtCs9mPPi8wqAva_6config5error11ConfigErrorEBa_
FNDA:6,_RINvXs_NvXNvNtCslIQ9Jy4gRpB_9zero2prod13configuration1__NtBa_8SettingsNtNtCsdHKQqFM4Pyt_5serde2de11Deserialize11deserializeNtB5_7___FieldB16_11deserializeNtNtCs9mPPi8wqAva_6config5value5ValueEBc_
FNDA:0,_RINvXs0_NvXNvNtCslIQ9Jy4gRpB_9zero2prod13configuration1__NtBb_8SettingsNtNtCsdHKQqFM4Pyt_5serde2de11Deserialize11deserializeNtB6_9___VisitorNtB19_7Visitor9visit_seqNtNtCs9mPPi8wqAva_6config2de9SeqAccessEBd_
FNDA:3,_RINvXs0_NvXNvNtCslIQ9Jy4gRpB_9zero2prod13configuration1__NtBb_8SettingsNtNtCsdHKQqFM4Pyt_5serde2de11Deserialize11deserializeNtB6_9___VisitorNtB19_7Visitor9visit_mapNtNtCs9mPPi8wqAva_6config2de9MapAccessEBd_
FNDA:0,_RINvXNvXNvNtCslIQ9Jy4gRpB_9zero2prod13configurations_1__NtB8_16DatabaseSettingsNtNtCsdHKQqFM4Pyt_5serde2de11Deserialize11deserializeNtB3_14___FieldVisitorNtB1h_7Visitor9visit_u64NtNtCs9mPPi8wqAva_6config5error11ConfigErrorEBa_
FNDA:15,_RINvXNvXNvNtCslIQ9Jy4gRpB_9zero2prod13configurations_1__NtB8_16DatabaseSettingsNtNtCsdHKQqFM4Pyt_5serde2de11Deserialize11deserializeNtB3_14___FieldVisitorNtB1h_7Visitor9visit_strNtNtCs9mPPi8wqAva_6config5error11ConfigErrorEBa_
FNDA:15,_RINvXs_NvXNvNtCslIQ9Jy4gRpB_9zero2prod13configurations_1__NtBa_16DatabaseSettingsNtNtCsdHKQqFM4Pyt_5serde2de11Deserialize11deserializeNtB5_7___FieldB1h_11deserializeNtNtCs9mPPi8wqAva_6config5value5ValueEBc_
FNDA:0,_RINvXs0_NvXNvNtCslIQ9Jy4gRpB_9zero2prod13configurations_1__NtBb_16DatabaseSettingsNtNtCsdHKQqFM4Pyt_5serde2de11Deserialize11deserializeNtB6_9___VisitorNtB1k_7Visitor9visit_seqNtNtCs9mPPi8wqAva_6config2de9SeqAccessEBd_
FNDA:3,_RINvXs0_NvXNvNtCslIQ9Jy4gRpB_9zero2prod13configurations_1__NtBb_16DatabaseSettingsNtNtCsdHKQqFM4Pyt_5serde2de11Deserialize11deserializeNtB6_9___VisitorNtB1k_7Visitor9visit_mapNtNtCs9mPPi8wqAva_6config2de9MapAccessEBd_
FNDA:0,_RINvXNvXNvNtCslIQ9Jy4gRpB_9zero2prod13configuration1__NtB8_8SettingsNtNtCsdHKQqFM4Pyt_5serde2de11Deserialize11deserializeNtB3_14___FieldVisitorNtB16_7Visitor11visit_bytespEBa_
FNDA:0,_RINvXNvXNvNtCslIQ9Jy4gRpB_9zero2prod13configurations_1__NtB8_16DatabaseSettingsNtNtCsdHKQqFM4Pyt_5serde2de11Deserialize11deserializeNtB3_14___FieldVisitorNtB1h_7Visitor11visit_bytespEBa_
FNDA:0,_RNvXNvXNvNtCs9lSmsy1E5hy_9zero2prod13configuration1__NtB7_8SettingsNtNtCsdHKQqFM4Pyt_5serde2de11Deserialize11deserializeNtB2_14___FieldVisitorNtB15_7Visitor9expecting
FNDA:0,_RINvXNvXNvNtCs9lSmsy1E5hy_9zero2prod13configuration1__NtB8_8SettingsNtNtCsdHKQqFM4Pyt_5serde2de11Deserialize11deserializeNtB3_14___FieldVisitorNtB16_7Visitor9visit_u64pEBa_
FNDA:0,_RINvXNvXNvNtCs9lSmsy1E5hy_9zero2prod13configuration1__NtB8_8SettingsNtNtCsdHKQqFM4Pyt_5serde2de11Deserialize11deserializeNtB3_14___FieldVisitorNtB16_7Visitor9visit_strpEBa_
FNDA:0,_RINvXNvXNvNtCs9lSmsy1E5hy_9zero2prod13configuration1__NtB8_8SettingsNtNtCsdHKQqFM4Pyt_5serde2de11Deserialize11deserializeNtB3_14___FieldVisitorNtB16_7Visitor11visit_bytespEBa_
FNDA:0,_RINvXs_NvXNvNtCs9lSmsy1E5hy_9zero2prod13configuration1__NtBa_8SettingsNtNtCsdHKQqFM4Pyt_5serde2de11Deserialize11deserializeNtB5_7___FieldB16_11deserializepEBc_
FNDA:0,_RNvXs0_NvXNvNtCs9lSmsy1E5hy_9zero2prod13configuration1__NtBa_8SettingsNtNtCsdHKQqFM4Pyt_5serde2de11Deserialize11deserializeNtB5_9___VisitorNtB18_7Visitor9expecting
FNDA:0,_RINvXs0_NvXNvNtCs9lSmsy1E5hy_9zero2prod13configuration1__NtBb_8SettingsNtNtCsdHKQqFM4Pyt_5serde2de11Deserialize11deserializeNtB6_9___VisitorNtB19_7Visitor9visit_seqpEBd_
FNDA:0,_RINvXs0_NvXNvNtCs9lSmsy1E5hy_9zero2prod13configuration1__NtBb_8SettingsNtNtCsdHKQqFM4Pyt_5serde2de11Deserialize11deserializeNtB6_9___VisitorNtB19_7Visitor9visit_mappEBd_
FNDA:0,_RNvXNvXNvNtCs9lSmsy1E5hy_9zero2prod13configurations_1__NtB7_16DatabaseSettingsNtNtCsdHKQqFM4Pyt_5serde2de11Deserialize11deserializeNtB2_14___FieldVisitorNtB1g_7Visitor9expecting
FNDA:0,_RINvXNvXNvNtCs9lSmsy1E5hy_9zero2prod13configurations_1__NtB8_16DatabaseSettingsNtNtCsdHKQqFM4Pyt_5serde2de11Deserialize11deserializeNtB3_14___FieldVisitorNtB1h_7Visitor9visit_u64pEBa_
FNDA:0,_RINvXNvXNvNtCs9lSmsy1E5hy_9zero2prod13configurations_1__NtB8_16DatabaseSettingsNtNtCsdHKQqFM4Pyt_5serde2de11Deserialize11deserializeNtB3_14___FieldVisitorNtB1h_7Visitor9visit_strpEBa_
FNDA:0,_RINvXNvXNvNtCs9lSmsy1E5hy_9zero2prod13configurations_1__NtB8_16DatabaseSettingsNtNtCsdHKQqFM4Pyt_5serde2de11Deserialize11deserializeNtB3_14___FieldVisitorNtB1h_7Visitor11visit_bytespEBa_
FNDA:0,_RINvXs_NvXNvNtCs9lSmsy1E5hy_9zero2prod13configurations_1__NtBa_16DatabaseSettingsNtNtCsdHKQqFM4Pyt_5serde2de11Deserialize11deserializeNtB5_7___FieldB1h_11deserializepEBc_
FNDA:0,_RNvXs0_NvXNvNtCs9lSmsy1E5hy_9zero2prod13configurations_1__NtBa_16DatabaseSettingsNtNtCsdHKQqFM4Pyt_5serde2de11Deserialize11deserializeNtB5_9___VisitorNtB1j_7Visitor9expecting
FNDA:0,_RINvXs0_NvXNvNtCs9lSmsy1E5hy_9zero2prod13configurations_1__NtBb_16DatabaseSettingsNtNtCsdHKQqFM4Pyt_5serde2de11Deserialize11deserializeNtB6_9___VisitorNtB1k_7Visitor9visit_seqpEBd_
FNDA:0,_RINvXs0_NvXNvNtCs9lSmsy1E5hy_9zero2prod13configurations_1__NtBb_16DatabaseSettingsNtNtCsdHKQqFM4Pyt_5serde2de11Deserialize11deserializeNtB6_9___VisitorNtB1k_7Visitor9visit_mappEBd_
FNDA:0,_RNvNtCs9lSmsy1E5hy_9zero2prod13configuration17get_configuration
FNDA:0,_RNvMNtCs9lSmsy1E5hy_9zero2prod13configurationNtB2_16DatabaseSettings17connection_string
FNDA:0,_RNvMNtCs9lSmsy1E5hy_9zero2prod13configurationNtB2_16DatabaseSettings28connection_string_without_db
FNF:5
FNH:4
DA:1,9
DA:7,18
DA:16,3
DA:17,3
DA:18,3
DA:19,3
DA:20,3
DA:21,3
DA:24,0
DA:25,0
DA:26,0
DA:27,0
DA:28,0
DA:29,0
DA:31,6
DA:32,6
DA:33,6
DA:34,6
DA:35,6
DA:36,6
BRF:0
BRH:0
LF:20
LH:14
end_of_record
SF:C:\Users\Kaloyan\Desktop\Learning\zero2prod\src\main.rs
FN:6,_RNvCs746dbCLxafh_9zero2prod4main
FN:6,_RNCNvCs746dbCLxafh_9zero2prod4main0B3_
FN:6,_RNCNvCsbdCCTNydfJr_9zero2prod4main0B3_
FN:6,_RNvCsbdCCTNydfJr_9zero2prod4main
FNDA:0,_RNvCs746dbCLxafh_9zero2prod4main
FNDA:0,_RNCNvCs746dbCLxafh_9zero2prod4main0B3_
FNDA:0,_RNCNvCsbdCCTNydfJr_9zero2prod4main0B3_
FNDA:0,_RNvCsbdCCTNydfJr_9zero2prod4main
FNF:2
FNH:0
DA:6,0
BRF:0
BRH:0
LF:2
LH:0
end_of_record
SF:C:\Users\Kaloyan\Desktop\Learning\zero2prod\src\routes\health_check.rs
FN:3,_RNvNtNtCslIQ9Jy4gRpB_9zero2prod6routes12health_check12health_check
FN:3,_RNCNvNtNtCslIQ9Jy4gRpB_9zero2prod6routes12health_check12health_check0B7_
FN:3,_RNvNtNtCs9lSmsy1E5hy_9zero2prod6routes12health_check12health_check
FN:3,_RNCNvNtNtCs9lSmsy1E5hy_9zero2prod6routes12health_check12health_check0B7_
FNDA:1,_RNvNtNtCslIQ9Jy4gRpB_9zero2prod6routes12health_check12health_check
FNDA:1,_RNCNvNtNtCslIQ9Jy4gRpB_9zero2prod6routes12health_check12health_check0B7_
FNDA:0,_RNvNtNtCs9lSmsy1E5hy_9zero2prod6routes12health_check12health_check
FNDA:0,_RNCNvNtNtCs9lSmsy1E5hy_9zero2prod6routes12health_check12health_check0B7_
FNF:2
FNH:2
DA:3,1
DA:4,1
DA:5,1
BRF:0
BRH:0
LF:4
LH:4
end_of_record
SF:C:\Users\Kaloyan\Desktop\Learning\zero2prod\src\routes\subscriptions.rs
FN:14,_RNvNtNtCslIQ9Jy4gRpB_9zero2prod6routes13subscriptions9subscribe
FN:8,_RNvXNvXNvNtNtCslIQ9Jy4gRpB_9zero2prod6routes13subscriptions1__NtB7_8FormDataNtNtCsdHKQqFM4Pyt_5serde2de11Deserialize11deserializeNtB2_14___FieldVisitorNtB1e_7Visitor9expecting
FN:8,_RNvXs0_NvXNvNtNtCslIQ9Jy4gRpB_9zero2prod6routes13subscriptions1__NtBa_8FormDataNtNtCsdHKQqFM4Pyt_5serde2de11Deserialize11deserializeNtB5_9___VisitorNtB1h_7Visitor9expecting
FN:14,_RNCNvNtNtCslIQ9Jy4gRpB_9zero2prod6routes13subscriptions9subscribe0B7_
FN:8,_RINvXNvXNvNtNtCslIQ9Jy4gRpB_9zero2prod6routes13subscriptions1__NtB8_8FormDataNtNtCsdHKQqFM4Pyt_5serde2de11Deserialize11deserializeNtB3_14___FieldVisitorNtB1f_7Visitor9visit_strNtNtB1f_5value5ErrorEBc_
FN:8,_RINvXs_NvXNvNtNtCslIQ9Jy4gRpB_9zero2prod6routes13subscriptions1__NtBa_8FormDataNtNtCsdHKQqFM4Pyt_5serde2de11Deserialize11deserializeNtB5_7___FieldB1f_11deserializeNtNtCseYOs8zdfUNo_16serde_urlencoded2de4PartEBe_
FN:8,_RINvXs0_NvXNvNtNtCslIQ9Jy4gRpB_9zero2prod6routes13subscriptions1__NtBb_8FormDataNtNtCsdHKQqFM4Pyt_5serde2de11Deserialize11deserializeNtB6_9___VisitorNtB1i_7Visitor9visit_mapINtNtB1i_5value15MapDeserializerNtNtCseYOs8zdfUNo_16serde_urlencoded2de12PartIteratorNtB2O_5ErrorEEBf_
FN:8,_RINvXNvXNvNtNtCslIQ9Jy4gRpB_9zero2prod6routes13subscriptions1__NtB8_8FormDataNtNtCsdHKQqFM4Pyt_5serde2de11Deserialize11deserializeNtB3_14___FieldVisitorNtB1f_7Visitor9visit_u64pEBc_
FN:8,_RINvXNvXNvNtNtCslIQ9Jy4gRpB_9zero2prod6routes13subscriptions1__NtB8_8FormDataNtNtCsdHKQqFM4Pyt_5serde2de11Deserialize11deserializeNtB3_14___FieldVisitorNtB1f_7Visitor11visit_bytespEBc_
FN:8,_RINvXs0_NvXNvNtNtCslIQ9Jy4gRpB_9zero2prod6routes13subscriptions1__NtBb_8FormDataNtNtCsdHKQqFM4Pyt_5serde2de11Deserialize11deserializeNtB6_9___VisitorNtB1i_7Visitor9visit_seqpEBf_
FN:8,_RNvXNvXNvNtNtCs9lSmsy1E5hy_9zero2prod6routes13subscriptions1__NtB7_8FormDataNtNtCsdHKQqFM4Pyt_5serde2de11Deserialize11deserializeNtB2_14___FieldVisitorNtB1e_7Visitor9expecting
FN:8,_RINvXNvXNvNtNtCs9lSmsy1E5hy_9zero2prod6routes13subscriptions1__NtB8_8FormDataNtNtCsdHKQqFM4Pyt_5serde2de11Deserialize11deserializeNtB3_14___FieldVisitorNtB1f_7Visitor9visit_u64pEBc_
FN:8,_RINvXNvXNvNtNtCs9lSmsy1E5hy_9zero2prod6routes13subscriptions1__NtB8_8FormDataNtNtCsdHKQqFM4Pyt_5serde2de11Deserialize11deserializeNtB3_14___FieldVisitorNtB1f_7Visitor9visit_strpEBc_
FN:8,_RINvXNvXNvNtNtCs9lSmsy1E5hy_9zero2prod6routes13subscriptions1__NtB8_8FormDataNtNtCsdHKQqFM4Pyt_5serde2de11Deserialize11deserializeNtB3_14___FieldVisitorNtB1f_7Visitor11visit_bytespEBc_
FN:8,_RINvXs_NvXNvNtNtCs9lSmsy1E5hy_9zero2prod6routes13subscriptions1__NtBa_8FormDataNtNtCsdHKQqFM4Pyt_5serde2de11Deserialize11deserializeNtB5_7___FieldB1f_11deserializepEBe_
FN:8,_RNvXs0_NvXNvNtNtCs9lSmsy1E5hy_9zero2prod6routes13subscriptions1__NtBa_8FormDataNtNtCsdHKQqFM4Pyt_5serde2de11Deserialize11deserializeNtB5_9___VisitorNtB1h_7Visitor9expecting
FN:8,_RINvXs0_NvXNvNtNtCs9lSmsy1E5hy_9zero2prod6routes13subscriptions1__NtBb_8FormDataNtNtCsdHKQqFM4Pyt_5serde2de11Deserialize11deserializeNtB6_9___VisitorNtB1i_7Visitor9visit_seqpEBf_
FN:8,_RINvXs0_NvXNvNtNtCs9lSmsy1E5hy_9zero2prod6routes13subscriptions1__NtBb_8FormDataNtNtCsdHKQqFM4Pyt_5serde2de11Deserialize11deserializeNtB6_9___VisitorNtB1i_7Visitor9visit_mappEBf_
FN:14,_RNvNtNtCs9lSmsy1E5hy_9zero2prod6routes13subscriptions9subscribe
FN:14,_RNCNvNtNtCs9lSmsy1E5hy_9zero2prod6routes13subscriptions9subscribe0B7_
FNDA:3,_RNvNtNtCslIQ9Jy4gRpB_9zero2prod6routes13subscriptions9subscribe
FNDA:0,_RNvXNvXNvNtNtCslIQ9Jy4gRpB_9zero2prod6routes13subscriptions1__NtB7_8FormDataNtNtCsdHKQqFM4Pyt_5serde2de11Deserialize11deserializeNtB2_14___FieldVisitorNtB1e_7Visitor9expecting
FNDA:0,_RNvXs0_NvXNvNtNtCslIQ9Jy4gRpB_9zero2prod6routes13subscriptions1__NtBa_8FormDataNtNtCsdHKQqFM4Pyt_5serde2de11Deserialize11deserializeNtB5_9___VisitorNtB1h_7Visitor9expecting
FNDA:3,_RNCNvNtNtCslIQ9Jy4gRpB_9zero2prod6routes13subscriptions9subscribe0B7_
FNDA:10,_RINvXNvXNvNtNtCslIQ9Jy4gRpB_9zero2prod6routes13subscriptions1__NtB8_8FormDataNtNtCsdHKQqFM4Pyt_5serde2de11Deserialize11deserializeNtB3_14___FieldVisitorNtB1f_7Visitor9visit_strNtNtB1f_5value5ErrorEBc_
FNDA:10,_RINvXs_NvXNvNtNtCslIQ9Jy4gRpB_9zero2prod6routes13subscriptions1__NtBa_8FormDataNtNtCsdHKQqFM4Pyt_5serde2de11Deserialize11deserializeNtB5_7___FieldB1f_11deserializeNtNtCseYOs8zdfUNo_16serde_urlencoded2de4PartEBe_
FNDA:8,_RINvXs0_NvXNvNtNtCslIQ9Jy4gRpB_9zero2prod6routes13subscriptions1__NtBb_8FormDataNtNtCsdHKQqFM4Pyt_5serde2de11Deserialize11deserializeNtB6_9___VisitorNtB1i_7Visitor9visit_mapINtNtB1i_5value15MapDeserializerNtNtCseYOs8zdfUNo_16serde_urlencoded2de12PartIteratorNtB2O_5ErrorEEBf_
FNDA:0,_RINvXNvXNvNtNtCslIQ9Jy4gRpB_9zero2prod6routes13subscriptions1__NtB8_8FormDataNtNtCsdHKQqFM4Pyt_5serde2de11Deserialize11deserializeNtB3_14___FieldVisitorNtB1f_7Visitor9visit_u64pEBc_
FNDA:0,_RINvXNvXNvNtNtCslIQ9Jy4gRpB_9zero2prod6routes13subscriptions1__NtB8_8FormDataNtNtCsdHKQqFM4Pyt_5serde2de11Deserialize11deserializeNtB3_14___FieldVisitorNtB1f_7Visitor11visit_bytespEBc_
FNDA:0,_RINvXs0_NvXNvNtNtCslIQ9Jy4gRpB_9zero2prod6routes13subscriptions1__NtBb_8FormDataNtNtCsdHKQqFM4Pyt_5serde2de11Deserialize11deserializeNtB6_9___VisitorNtB1i_7Visitor9visit_seqpEBf_
FNDA:0,_RNvXNvXNvNtNtCs9lSmsy1E5hy_9zero2prod6routes13subscriptions1__NtB7_8FormDataNtNtCsdHKQqFM4Pyt_5serde2de11Deserialize11deserializeNtB2_14___FieldVisitorNtB1e_7Visitor9expecting
FNDA:0,_RINvXNvXNvNtNtCs9lSmsy1E5hy_9zero2prod6routes13subscriptions1__NtB8_8FormDataNtNtCsdHKQqFM4Pyt_5serde2de11Deserialize11deserializeNtB3_14___FieldVisitorNtB1f_7Visitor9visit_u64pEBc_
FNDA:0,_RINvXNvXNvNtNtCs9lSmsy1E5hy_9zero2prod6routes13subscriptions1__NtB8_8FormDataNtNtCsdHKQqFM4Pyt_5serde2de11Deserialize11deserializeNtB3_14___FieldVisitorNtB1f_7Visitor9visit_strpEBc_
FNDA:0,_RINvXNvXNvNtNtCs9lSmsy1E5hy_9zero2prod6routes13subscriptions1__NtB8_8FormDataNtNtCsdHKQqFM4Pyt_5serde2de11Deserialize11deserializeNtB3_14___FieldVisitorNtB1f_7Visitor11visit_bytespEBc_
FNDA:0,_RINvXs_NvXNvNtNtCs9lSmsy1E5hy_9zero2prod6routes13subscriptions1__NtBa_8FormDataNtNtCsdHKQqFM4Pyt_5serde2de11Deserialize11deserializeNtB5_7___FieldB1f_11deserializepEBe_
FNDA:0,_RNvXs0_NvXNvNtNtCs9lSmsy1E5hy_9zero2prod6routes13subscriptions1__NtBa_8FormDataNtNtCsdHKQqFM4Pyt_5serde2de11Deserialize11deserializeNtB5_9___VisitorNtB1h_7Visitor9expecting
FNDA:0,_RINvXs0_NvXNvNtNtCs9lSmsy1E5hy_9zero2prod6routes13subscriptions1__NtBb_8FormDataNtNtCsdHKQqFM4Pyt_5serde2de11Deserialize11deserializeNtB6_9___VisitorNtB1i_7Visitor9visit_seqpEBf_
FNDA:0,_RINvXs0_NvXNvNtNtCs9lSmsy1E5hy_9zero2prod6routes13subscriptions1__NtBb_8FormDataNtNtCsdHKQqFM4Pyt_5serde2de11Deserialize11deserializeNtB6_9___VisitorNtB1i_7Visitor9visit_mappEBf_
FNDA:0,_RNvNtNtCs9lSmsy1E5hy_9zero2prod6routes13subscriptions9subscribe
FNDA:0,_RNCNvNtNtCs9lSmsy1E5hy_9zero2prod6routes13subscriptions9subscribe0B7_
FNF:3
FNH:3
DA:8,18
DA:14,3
DA:15,3
DA:16,2
DA:17,1
DA:18,1
DA:19,1
DA:20,1
DA:21,1
DA:22,1
DA:23,1
DA:24,1
DA:25,1
DA:26,4
DA:28,1
DA:29,0
DA:30,0
DA:31,0
DA:34,3
BRF:0
BRH:0
LF:20
LH:17
end_of_record
SF:C:\Users\Kaloyan\Desktop\Learning\zero2prod\src\startup.rs
FN:8,_RNvNtCslIQ9Jy4gRpB_9zero2prod7startup3run
FN:11,_RNCNvNtCslIQ9Jy4gRpB_9zero2prod7startup3run0B5_
FN:8,_RNvNtCs9lSmsy1E5hy_9zero2prod7startup3run
FN:11,_RNCNvNtCs9lSmsy1E5hy_9zero2prod7startup3run0B5_
FNDA:3,_RNvNtCslIQ9Jy4gRpB_9zero2prod7startup3run
FNDA:18,_RNCNvNtCslIQ9Jy4gRpB_9zero2prod7startup3run0B5_
FNDA:0,_RNvNtCs9lSmsy1E5hy_9zero2prod7startup3run
FNDA:0,_RNCNvNtCs9lSmsy1E5hy_9zero2prod7startup3run0B5_
FNF:2
FNH:2
DA:8,3
DA:9,3
DA:10,3
DA:11,18
DA:12,18
DA:13,18
DA:14,18
DA:15,18
DA:16,18
DA:17,3
DA:18,3
DA:19,3
DA:20,3
BRF:0
BRH:0
LF:15
LH:15
end_of_record